; Function Attrs: mustprogress nounwind uwtable
define hidden void @_ZN11ZGeneration16free_empty_pagesEP22ZRelocationSetSelectori(ptr noundef nonnull align 64 dereferenceable(6592) %0, ptr noundef %1, i32 noundef %2) local_unnamed_addr #0 align 2 {
  %4 = getelementptr inbounds i8, ptr %1, i64 2568
  %5 = load i32, ptr %4, align 4
  %.not.i = icmp sge i32 %5, %2
  %6 = icmp ne i32 %5, 0
  %spec.select.i = and i1 %.not.i, %6
  br i1 %spec.select.i, label %7, label %12

7:                                                ; preds = %3
  %8 = load ptr, ptr @_ZN5ZHeap5_heapE, align 8
  %9 = tail call noundef i64 @_ZN5ZHeap16free_empty_pagesEPK18GrowableArrayCHeapIP5ZPageL8MEMFLAGS5EE(ptr noundef nonnull align 64 dereferenceable(15937) %8, ptr noundef nonnull %4) #18
  %10 = getelementptr inbounds i8, ptr %0, i64 3192
  %11 = tail call noundef i64 asm sideeffect "lock xaddq $0,($2)", "=r,0,r,~{cc},~{memory},~{dirflag},~{fpsr},~{flags}"(i64 %9, ptr nonnull %10) #18, !srcloc !6
  store i32 0, ptr %4, align 4
  br label %12

12:                                               ; preds = %7, %3
  ret void
}